target datalayout = "e-m:e-p270:32:32-p271:32:32-p272:64:64-i64:64-i128:128-f80:128-n8:16:32:64-S128"
target triple = "x86_64-pc-linux-gnu"

@_ZN15java_lang_Class16_oop_size_offsetE = external global i32, align 4

; Function Attrs: mustprogress nounwind uwtable
define linkonce_odr hidden noundef i64 @_Z13cast_from_oopIlET_P7oopDesc(ptr noundef %0) #1 comdat {
  %2 = alloca ptr, align 8
  store ptr %0, ptr %2, align 8
  %3 = load ptr, ptr %2, align 8
  %4 = ptrtoint ptr %3 to i64
  ret i64 %4
}

; Function Attrs: mustprogress nounwind uwtable
define linkonce_odr hidden noundef ptr @_ZNK7oopDesc6as_oopEv(ptr noundef nonnull align 8 dereferenceable(16) %0) #1 comdat align 2 {
  %2 = alloca ptr, align 8
  store ptr %0, ptr %2, align 8
  %3 = load ptr, ptr %2, align 8
  ret ptr %3
}

; Function Attrs: mustprogress nounwind uwtable
define linkonce_odr hidden noundef ptr @_ZNK7oopDesc10field_addrIiEEPT_i(ptr noundef nonnull align 8 dereferenceable(16) %0, i32 noundef %1) #1 comdat align 2 {
  %3 = alloca ptr, align 8
  %4 = alloca i32, align 4
  store ptr %0, ptr %3, align 8
  store i32 %1, ptr %4, align 4
  %5 = load ptr, ptr %3, align 8
  %6 = call noundef ptr @_ZNK7oopDesc6as_oopEv(ptr noundef nonnull align 8 dereferenceable(16) %5)
  %7 = call noundef i64 @_Z13cast_from_oopIlET_P7oopDesc(ptr noundef %6)
  %8 = load i32, ptr %4, align 4
  %9 = sext i32 %8 to i64
  %10 = add nsw i64 %7, %9
  %11 = inttoptr i64 %10 to ptr
  ret ptr %11
}

; Function Attrs: mustprogress nounwind uwtable
define linkonce_odr hidden noundef i32 @_ZNK7oopDesc9int_fieldEi(ptr noundef nonnull align 8 dereferenceable(16) %0, i32 noundef %1) #1 comdat align 2 {
  %3 = alloca ptr, align 8
  %4 = alloca i32, align 4
  store ptr %0, ptr %3, align 8
  store i32 %1, ptr %4, align 4
  %5 = load ptr, ptr %3, align 8
  %6 = load i32, ptr %4, align 4
  %7 = call noundef ptr @_ZNK7oopDesc10field_addrIiEEPT_i(ptr noundef nonnull align 8 dereferenceable(16) %5, i32 noundef %6)
  %8 = load i32, ptr %7, align 4
  ret i32 %8
}

; Function Attrs: mustprogress nounwind uwtable
define linkonce_odr hidden noundef i64 @_ZN15java_lang_Class8oop_sizeEP7oopDesc(ptr noundef %0) #1 comdat align 2 {
  %2 = alloca ptr, align 8
  %3 = alloca i32, align 4
  store ptr %0, ptr %2, align 8
  %4 = load ptr, ptr %2, align 8
  %5 = load i32, ptr @_ZN15java_lang_Class16_oop_size_offsetE, align 4
  %6 = call noundef i32 @_ZNK7oopDesc9int_fieldEi(ptr noundef nonnull align 8 dereferenceable(16) %4, i32 noundef %5)
  store i32 %6, ptr %3, align 4
  %7 = load i32, ptr %3, align 4
  %8 = sext i32 %7 to i64
  ret i64 %8
}

; Function Attrs: mustprogress nounwind uwtable
define hidden noundef i64 @_ZNK19InstanceMirrorKlass8oop_sizeEP7oopDesc(ptr noundef nonnull align 8 dereferenceable(464) %0, ptr noundef %1) unnamed_addr #1 align 2 {
  %3 = alloca ptr, align 8
  %4 = alloca ptr, align 8
  store ptr %0, ptr %3, align 8
  store ptr %1, ptr %4, align 8
  %5 = load ptr, ptr %4, align 8
  %6 = call noundef i64 @_ZN15java_lang_Class8oop_sizeEP7oopDesc(ptr noundef %5)
  ret i64 %6
}